; Function Attrs: nounwind uwtable
define ptr @l_Array_foldlMUnsafe_fold___at_Lake_Toml_RBDict_filterMap___spec__1___rarg___boxed(ptr noundef %0, ptr noundef %1, ptr noundef %2, ptr noundef %3, ptr noundef %4, ptr noundef %5) #0 {
  %7 = getelementptr i8, ptr %3, i64 8
  %.val17 = load i64, ptr %7, align 8, !tbaa !14
  %8 = ptrtoint ptr %3 to i64
  %9 = and i64 %8, 1
  %.not = icmp eq i64 %9, 0
  br i1 %.not, label %10, label %lean_dec.exit12

10:                                               ; preds = %6
  %11 = load i32, ptr %3, align 4, !tbaa !8
  %12 = icmp sgt i32 %11, 1
  br i1 %12, label %13, label %15, !prof !13

13:                                               ; preds = %10
  %14 = add nsw i32 %11, -1
  store i32 %14, ptr %3, align 4, !tbaa !8
  br label %lean_dec.exit12

15:                                               ; preds = %10
  %.not.i = icmp eq i32 %11, 0
  br i1 %.not.i, label %lean_dec.exit12, label %16

16:                                               ; preds = %15
  tail call void @lean_dec_ref_cold(ptr noundef nonnull %3) #5
  br label %lean_dec.exit12

lean_dec.exit12:                                  ; preds = %16, %15, %13, %6
  %17 = getelementptr i8, ptr %4, i64 8
  %.val = load i64, ptr %17, align 8, !tbaa !14
  %18 = ptrtoint ptr %4 to i64
  %19 = and i64 %18, 1
  %.not18 = icmp eq i64 %19, 0
  br i1 %.not18, label %20, label %lean_dec.exit11

20:                                               ; preds = %lean_dec.exit12
  %21 = load i32, ptr %4, align 4, !tbaa !8
  %22 = icmp sgt i32 %21, 1
  br i1 %22, label %23, label %25, !prof !13

23:                                               ; preds = %20
  %24 = add nsw i32 %21, -1
  store i32 %24, ptr %4, align 4, !tbaa !8
  br label %lean_dec.exit11

25:                                               ; preds = %20
  %.not.i13 = icmp eq i32 %21, 0
  br i1 %.not.i13, label %lean_dec.exit11, label %26

26:                                               ; preds = %25
  tail call void @lean_dec_ref_cold(ptr noundef nonnull %4) #5
  br label %lean_dec.exit11

lean_dec.exit11:                                  ; preds = %26, %25, %23, %lean_dec.exit12
  %27 = tail call ptr @l_Array_foldlMUnsafe_fold___at_Lake_Toml_RBDict_filterMap___spec__1___rarg(ptr noundef %0, ptr noundef %1, ptr noundef %2, i64 noundef %.val17, i64 noundef %.val, ptr noundef %5)
  %28 = ptrtoint ptr %2 to i64
  %29 = and i64 %28, 1
  %.not19 = icmp eq i64 %29, 0
  br i1 %.not19, label %30, label %lean_dec.exit

30:                                               ; preds = %lean_dec.exit11
  %31 = load i32, ptr %2, align 4, !tbaa !8
  %32 = icmp sgt i32 %31, 1
  br i1 %32, label %33, label %35, !prof !13

33:                                               ; preds = %30
  %34 = add nsw i32 %31, -1
  store i32 %34, ptr %2, align 4, !tbaa !8
  br label %lean_dec.exit

35:                                               ; preds = %30
  %.not.i15 = icmp eq i32 %31, 0
  br i1 %.not.i15, label %lean_dec.exit, label %36

36:                                               ; preds = %35
  tail call void @lean_dec_ref_cold(ptr noundef nonnull %2) #5
  br label %lean_dec.exit

lean_dec.exit:                                    ; preds = %36, %35, %33, %lean_dec.exit11
  ret ptr %27
}